target datalayout = "e-m:e-p270:32:32-p271:32:32-p272:64:64-i64:64-i128:128-f80:128-n8:16:32:64-S128"
target triple = "x86_64-pc-linux-gnu"

%struct.APVRawPBUHeader = type { i8, i16, i8 }
%struct.APVRawFiller = type { i64 }
%union.AVRefStructOpaque = type { ptr }
%struct.APVRawMetadata = type { %struct.APVRawPBUHeader, i32, i32, [8 x %struct.APVRawMetadataPayload], %struct.APVRawFiller }
%struct.APVRawMetadataPayload = type { i32, i32, %union.anon.3 }
%union.anon.3 = type { %struct.APVRawMetadataUserDefined }
%struct.APVRawMetadataUserDefined = type { [16 x i8], ptr, ptr, i64 }
%struct.APVRawMetadataITUTT35 = type { i8, i8, ptr, ptr, i64 }
%struct.APVRawMetadataUndefined = type { ptr, ptr, i64 }

@.str = private unnamed_addr constant [30 x i8] c"Assertion %s failed at %s:%d\0A\00", align 1
@.str.2 = private unnamed_addr constant [44 x i8] c"md->pbu_header.pbu_type == APV_PBU_METADATA\00", align 1
@.str.3 = private unnamed_addr constant [21 x i8] c"libavcodec/cbs_apv.c\00", align 1

; Function Attrs: nounwind uwtable
define internal void @cbs_apv_free_metadata(ptr %0, ptr noundef %1) #0 {
  %3 = alloca %union.AVRefStructOpaque, align 8
  %4 = alloca ptr, align 8
  %5 = alloca ptr, align 8
  %6 = alloca i32, align 4
  %7 = alloca ptr, align 8
  %8 = getelementptr inbounds nuw %union.AVRefStructOpaque, ptr %3, i32 0, i32 0
  store ptr %0, ptr %8, align 8
  store ptr %1, ptr %4, align 8, !tbaa !59
  call void @llvm.lifetime.start.p0(i64 8, ptr %5) #8
  %9 = load ptr, ptr %4, align 8, !tbaa !59
  store ptr %9, ptr %5, align 8, !tbaa !60
  br label %10

10:                                               ; preds = %2
  %11 = load ptr, ptr %5, align 8, !tbaa !60
  %12 = getelementptr inbounds nuw %struct.APVRawMetadata, ptr %11, i32 0, i32 0
  %13 = getelementptr inbounds nuw %struct.APVRawPBUHeader, ptr %12, i32 0, i32 0
  %14 = load i8, ptr %13, align 8, !tbaa !62
  %15 = zext i8 %14 to i32
  %16 = icmp eq i32 %15, 66
  br i1 %16, label %18, label %17

17:                                               ; preds = %10
  call void (ptr, i32, ptr, ...) @av_log(ptr noundef null, i32 noundef 0, ptr noundef @.str, ptr noundef @.str.2, ptr noundef @.str.3, i32 noundef 397)
  call void @abort() #10
  unreachable

18:                                               ; preds = %10
  br label %19

19:                                               ; preds = %18
  br label %20

20:                                               ; preds = %19
  call void @llvm.lifetime.start.p0(i64 4, ptr %6) #8
  store i32 0, ptr %6, align 4, !tbaa !11
  br label %21

21:                                               ; preds = %51, %20
  %22 = load i32, ptr %6, align 4, !tbaa !11
  %23 = load ptr, ptr %5, align 8, !tbaa !60
  %24 = getelementptr inbounds nuw %struct.APVRawMetadata, ptr %23, i32 0, i32 2
  %25 = load i32, ptr %24, align 4, !tbaa !64
  %26 = icmp ult i32 %22, %25
  br i1 %26, label %28, label %27

27:                                               ; preds = %21
  call void @llvm.lifetime.end.p0(i64 4, ptr %6) #8
  br label %54

28:                                               ; preds = %21
  call void @llvm.lifetime.start.p0(i64 8, ptr %7) #8
  %29 = load ptr, ptr %5, align 8, !tbaa !60
  %30 = getelementptr inbounds nuw %struct.APVRawMetadata, ptr %29, i32 0, i32 3
  %31 = load i32, ptr %6, align 4, !tbaa !11
  %32 = sext i32 %31 to i64
  %33 = getelementptr inbounds [8 x %struct.APVRawMetadataPayload], ptr %30, i64 0, i64 %32
  store ptr %33, ptr %7, align 8, !tbaa !65
  %34 = load ptr, ptr %7, align 8, !tbaa !65
  %35 = getelementptr inbounds nuw %struct.APVRawMetadataPayload, ptr %34, i32 0, i32 0
  %36 = load i32, ptr %35, align 8, !tbaa !67
  switch i32 %36, label %46 [
    i32 5, label %37
    i32 6, label %37
    i32 10, label %37
    i32 4, label %38
    i32 170, label %42
  ]

37:                                               ; preds = %28, %28, %28
  br label %50

38:                                               ; preds = %28
  %39 = load ptr, ptr %7, align 8, !tbaa !65
  %40 = getelementptr inbounds nuw %struct.APVRawMetadataPayload, ptr %39, i32 0, i32 2
  %41 = getelementptr inbounds nuw %struct.APVRawMetadataITUTT35, ptr %40, i32 0, i32 3
  call void @av_buffer_unref(ptr noundef %41)
  br label %50

42:                                               ; preds = %28
  %43 = load ptr, ptr %7, align 8, !tbaa !65
  %44 = getelementptr inbounds nuw %struct.APVRawMetadataPayload, ptr %43, i32 0, i32 2
  %45 = getelementptr inbounds nuw %struct.APVRawMetadataUserDefined, ptr %44, i32 0, i32 2
  call void @av_buffer_unref(ptr noundef %45)
  br label %50

46:                                               ; preds = %28
  %47 = load ptr, ptr %7, align 8, !tbaa !65
  %48 = getelementptr inbounds nuw %struct.APVRawMetadataPayload, ptr %47, i32 0, i32 2
  %49 = getelementptr inbounds nuw %struct.APVRawMetadataUndefined, ptr %48, i32 0, i32 1
  call void @av_buffer_unref(ptr noundef %49)
  br label %50

50:                                               ; preds = %46, %42, %38, %37
  call void @llvm.lifetime.end.p0(i64 8, ptr %7) #8
  br label %51

51:                                               ; preds = %50
  %52 = load i32, ptr %6, align 4, !tbaa !11
  %53 = add nsw i32 %52, 1
  store i32 %53, ptr %6, align 4, !tbaa !11
  br label %21, !llvm.loop !69

54:                                               ; preds = %27
  call void @llvm.lifetime.end.p0(i64 8, ptr %5) #8
  ret void
}