; Function Attrs: nounwind uwtable
define internal void @cbs_apv_free_metadata(ptr readnone captures(none) %0, ptr noundef %1) #0 {
  %3 = load i8, ptr %1, align 8, !tbaa !160
  %4 = icmp eq i8 %3, 66
  br i1 %4, label %.preheader, label %8

.preheader:                                       ; preds = %2
  %5 = getelementptr inbounds nuw i8, ptr %1, i64 12
  %6 = load i32, ptr %5, align 4, !tbaa !97
  %.not = icmp eq i32 %6, 0
  br i1 %.not, label %._crit_edge, label %.lr.ph

.lr.ph:                                           ; preds = %.preheader
  %7 = getelementptr inbounds nuw i8, ptr %1, i64 16
  br label %9

8:                                                ; preds = %2
  tail call void (ptr, i32, ptr, ...) @av_log(ptr noundef null, i32 noundef 0, ptr noundef nonnull @.str, ptr noundef nonnull @.str.2, ptr noundef nonnull @.str.3, i32 noundef 397) #7
  tail call void @abort() #8
  unreachable

._crit_edge:                                      ; preds = %15, %.preheader
  ret void

9:                                                ; preds = %.lr.ph, %15
  %indvars.iv = phi i64 [ 0, %.lr.ph ], [ %indvars.iv.next, %15 ]
  %10 = getelementptr inbounds nuw [8 x %struct.APVRawMetadataPayload], ptr %7, i64 0, i64 %indvars.iv
  %11 = load i32, ptr %10, align 8, !tbaa !92
  switch i32 %11, label %13 [
    i32 5, label %15
    i32 6, label %15
    i32 10, label %15
    i32 4, label %.sink.split
    i32 170, label %12
  ]

12:                                               ; preds = %9
  br label %.sink.split

13:                                               ; preds = %9
  br label %.sink.split

.sink.split:                                      ; preds = %9, %12, %13
  %.sink12 = phi i64 [ 16, %13 ], [ 32, %12 ], [ 24, %9 ]
  %14 = getelementptr inbounds nuw i8, ptr %10, i64 %.sink12
  tail call void @av_buffer_unref(ptr noundef nonnull %14) #7
  br label %15

15:                                               ; preds = %.sink.split, %9, %9, %9
  %indvars.iv.next = add nuw nsw i64 %indvars.iv, 1
  %16 = load i32, ptr %5, align 4, !tbaa !97
  %17 = zext i32 %16 to i64
  %18 = icmp samesign ult i64 %indvars.iv.next, %17
  br i1 %18, label %9, label %._crit_edge, !llvm.loop !161
}